target datalayout = "e-m:e-p270:32:32-p271:32:32-p272:64:64-i64:64-i128:128-f80:128-n8:16:32:64-S128"
target triple = "x86_64-pc-linux-gnu"

%struct.stat = type { i64, i64, i64, i32, i32, i32, i32, i64, i64, i64, i64, %struct.timespec, %struct.timespec, %struct.timespec, [3 x i64] }
%struct.timespec = type { i64, i64 }

@.str.104 = private unnamed_addr constant [40 x i8] c"/sys/kernel/zone_sort_free_pages/nodeid\00", align 1
@.str.105 = private unnamed_addr constant [31 x i8] c"/sbin/modprobe zonesort_module\00", align 1
@.str.106 = private unnamed_addr constant [31 x i8] c"%s: Could not open file %s: %m\00", align 1
@__func__.node_features_p_step_config = private unnamed_addr constant [28 x i8] c"node_features_p_step_config\00", align 1
@.str.107 = private unnamed_addr constant [3 x i8] c"%d\00", align 1
@.str.108 = private unnamed_addr constant [32 x i8] c"%s: Could not write file %s: %m\00", align 1

; Function Attrs: nounwind uwtable
define dso_local void @node_features_p_step_config(i1 noundef zeroext %0, ptr noundef %1) #0 {
  %3 = alloca i8, align 1
  %4 = alloca ptr, align 8
  %5 = alloca %struct.stat, align 8
  %6 = alloca i32, align 4
  %7 = alloca i32, align 4
  %8 = alloca i32, align 4
  %9 = alloca i32, align 4
  %10 = alloca [16 x i8], align 16
  %11 = zext i1 %0 to i8
  store i8 %11, ptr %3, align 1
  store ptr %1, ptr %4, align 8
  %12 = load i8, ptr %3, align 1, !range !28, !noundef !29
  %13 = trunc i8 %12 to i1
  br i1 %13, label %14, label %73

14:                                               ; preds = %2
  %15 = call i32 @numa_available()
  %16 = icmp ne i32 %15, -1
  br i1 %16, label %17, label %73

17:                                               ; preds = %14
  call void @llvm.lifetime.start.p0(i64 144, ptr %5) #9
  call void @llvm.lifetime.start.p0(i64 4, ptr %6) #9
  call void @llvm.lifetime.start.p0(i64 4, ptr %7) #9
  call void @llvm.lifetime.start.p0(i64 4, ptr %8) #9
  call void @llvm.lifetime.start.p0(i64 4, ptr %9) #9
  call void @llvm.lifetime.start.p0(i64 16, ptr %10) #9
  %18 = call i32 @stat(ptr noundef @.str.104, ptr noundef %5) #9
  %19 = icmp eq i32 %18, -1
  br i1 %19, label %20, label %25

20:                                               ; preds = %17
  %21 = call i32 @system(ptr noundef @.str.105)
  %22 = icmp ne i32 %21, 0
  br i1 %22, label %23, label %24

23:                                               ; preds = %20
  br label %24

24:                                               ; preds = %23, %20
  br label %25

25:                                               ; preds = %24, %17
  %26 = call i32 (ptr, i32, ...) @open(ptr noundef @.str.104, i32 noundef 1052673)
  store i32 %26, ptr %7, align 4
  %27 = icmp eq i32 %26, -1
  br i1 %27, label %28, label %30

28:                                               ; preds = %25
  %29 = call i32 (ptr, ...) @error(ptr noundef @.str.106, ptr noundef @__func__.node_features_p_step_config, ptr noundef @.str.104)
  br label %72

30:                                               ; preds = %25
  %31 = call i32 @numa_max_node()
  %32 = add nsw i32 %31, 1
  store i32 %32, ptr %9, align 4
  store i32 0, ptr %8, align 4
  br label %33

33:                                               ; preds = %66, %30
  %34 = load i32, ptr %8, align 4
  %35 = load i32, ptr %9, align 4
  %36 = icmp slt i32 %34, %35
  br i1 %36, label %37, label %69

37:                                               ; preds = %33
  %38 = load ptr, ptr %4, align 8
  %39 = icmp ne ptr %38, null
  br i1 %39, label %40, label %47

40:                                               ; preds = %37
  %41 = load ptr, ptr %4, align 8
  %42 = load i32, ptr %8, align 4
  %43 = sext i32 %42 to i64
  %44 = call i32 @slurm_bit_test(ptr noundef %41, i64 noundef %43)
  %45 = icmp ne i32 %44, 0
  br i1 %45, label %47, label %46

46:                                               ; preds = %40
  br label %66

47:                                               ; preds = %40, %37
  %48 = getelementptr inbounds [16 x i8], ptr %10, i64 0, i64 0
  %49 = load i32, ptr %8, align 4
  %50 = call i32 (ptr, i64, ptr, ...) @snprintf(ptr noundef %48, i64 noundef 16, ptr noundef @.str.107, i32 noundef %49) #9
  %51 = getelementptr inbounds [16 x i8], ptr %10, i64 0, i64 0
  %52 = call i64 @strlen(ptr noundef %51) #12
  %53 = add i64 %52, 1
  %54 = trunc i64 %53 to i32
  store i32 %54, ptr %6, align 4
  %55 = load i32, ptr %7, align 4
  %56 = getelementptr inbounds [16 x i8], ptr %10, i64 0, i64 0
  %57 = load i32, ptr %6, align 4
  %58 = sext i32 %57 to i64
  %59 = call i64 @write(i32 noundef %55, ptr noundef %56, i64 noundef %58)
  %60 = load i32, ptr %6, align 4
  %61 = sext i32 %60 to i64
  %62 = icmp ne i64 %59, %61
  br i1 %62, label %63, label %65

63:                                               ; preds = %47
  %64 = call i32 (ptr, ...) @error(ptr noundef @.str.108, ptr noundef @__func__.node_features_p_step_config, ptr noundef @.str.104)
  br label %65

65:                                               ; preds = %63, %47
  br label %66

66:                                               ; preds = %65, %46
  %67 = load i32, ptr %8, align 4
  %68 = add nsw i32 %67, 1
  store i32 %68, ptr %8, align 4
  br label %33, !llvm.loop !50

69:                                               ; preds = %33
  %70 = load i32, ptr %7, align 4
  %71 = call i32 @close(i32 noundef %70)
  br label %72

72:                                               ; preds = %69, %28
  call void @llvm.lifetime.end.p0(i64 16, ptr %10) #9
  call void @llvm.lifetime.end.p0(i64 4, ptr %9) #9
  call void @llvm.lifetime.end.p0(i64 4, ptr %8) #9
  call void @llvm.lifetime.end.p0(i64 4, ptr %7) #9
  call void @llvm.lifetime.end.p0(i64 4, ptr %6) #9
  call void @llvm.lifetime.end.p0(i64 144, ptr %5) #9
  br label %73

73:                                               ; preds = %72, %14, %2
  ret void
}