; Function Attrs: nounwind uwtable
define dso_local void @node_features_p_step_config(i1 noundef zeroext %0, ptr noundef %1) local_unnamed_addr #0 {
  %3 = alloca %struct.stat, align 8
  %4 = alloca [16 x i8], align 16
  br i1 %0, label %5, label %42

5:                                                ; preds = %2
  %6 = tail call i32 @numa_available() #14
  %.not = icmp eq i32 %6, -1
  br i1 %.not, label %42, label %7

7:                                                ; preds = %5
  call void @llvm.lifetime.start.p0(i64 144, ptr nonnull %3) #14
  call void @llvm.lifetime.start.p0(i64 16, ptr nonnull %4) #14
  %8 = call i32 @stat(ptr noundef nonnull @.str.104, ptr noundef nonnull %3) #14
  %9 = icmp eq i32 %8, -1
  br i1 %9, label %10, label %12

10:                                               ; preds = %7
  %11 = tail call i32 @system(ptr noundef nonnull @.str.105) #14
  br label %12

12:                                               ; preds = %10, %7
  %13 = tail call i32 (ptr, i32, ...) @open(ptr noundef nonnull @.str.104, i32 noundef 1052673) #14
  %14 = icmp eq i32 %13, -1
  br i1 %14, label %15, label %17

15:                                               ; preds = %12
  %16 = tail call i32 (ptr, ...) @error(ptr noundef nonnull @.str.106, ptr noundef nonnull @__func__.node_features_p_step_config, ptr noundef nonnull @.str.104) #14
  br label %41

17:                                               ; preds = %12
  %18 = tail call i32 @numa_max_node() #14
  %.not1317 = icmp slt i32 %18, 0
  br i1 %.not1317, label %._crit_edge, label %.lr.ph

.lr.ph:                                           ; preds = %17
  %.not14 = icmp eq ptr %1, null
  br i1 %.not14, label %.lr.ph.split.us, label %.lr.ph.split.preheader

.lr.ph.split.preheader:                           ; preds = %.lr.ph
  %19 = add nuw i32 %18, 1
  %wide.trip.count = zext i32 %19 to i64
  br label %.lr.ph.split

.lr.ph.split.us:                                  ; preds = %.lr.ph, %27
  %.018.us = phi i32 [ %28, %27 ], [ 0, %.lr.ph ]
  %20 = call i32 (ptr, i64, ptr, ...) @snprintf(ptr noundef nonnull dereferenceable(1) %4, i64 noundef 16, ptr noundef nonnull @.str.107, i32 noundef %.018.us) #14
  %21 = call i64 @strlen(ptr noundef nonnull dereferenceable(1) %4) #16
  %22 = shl i64 %21, 32
  %sext.us = add i64 %22, 4294967296
  %23 = ashr exact i64 %sext.us, 32
  %24 = call i64 @write(i32 noundef %13, ptr noundef nonnull %4, i64 noundef %23) #14
  %.not16.us = icmp eq i64 %24, %23
  br i1 %.not16.us, label %27, label %25

25:                                               ; preds = %.lr.ph.split.us
  %26 = tail call i32 (ptr, ...) @error(ptr noundef nonnull @.str.108, ptr noundef nonnull @__func__.node_features_p_step_config, ptr noundef nonnull @.str.104) #14
  br label %27

27:                                               ; preds = %25, %.lr.ph.split.us
  %28 = add nuw i32 %.018.us, 1
  %exitcond21.not = icmp eq i32 %.018.us, %18
  br i1 %exitcond21.not, label %._crit_edge, label %.lr.ph.split.us, !llvm.loop !46

.lr.ph.split:                                     ; preds = %.lr.ph.split.preheader, %39
  %indvars.iv = phi i64 [ 0, %.lr.ph.split.preheader ], [ %indvars.iv.next, %39 ]
  %29 = tail call i32 @slurm_bit_test(ptr noundef nonnull %1, i64 noundef %indvars.iv) #14
  %.not15 = icmp eq i32 %29, 0
  br i1 %.not15, label %39, label %30

30:                                               ; preds = %.lr.ph.split
  %31 = trunc nuw nsw i64 %indvars.iv to i32
  %32 = call i32 (ptr, i64, ptr, ...) @snprintf(ptr noundef nonnull dereferenceable(1) %4, i64 noundef 16, ptr noundef nonnull @.str.107, i32 noundef %31) #14
  %33 = call i64 @strlen(ptr noundef nonnull dereferenceable(1) %4) #16
  %34 = shl i64 %33, 32
  %sext = add i64 %34, 4294967296
  %35 = ashr exact i64 %sext, 32
  %36 = call i64 @write(i32 noundef %13, ptr noundef nonnull %4, i64 noundef %35) #14
  %.not16 = icmp eq i64 %36, %35
  br i1 %.not16, label %39, label %37

37:                                               ; preds = %30
  %38 = tail call i32 (ptr, ...) @error(ptr noundef nonnull @.str.108, ptr noundef nonnull @__func__.node_features_p_step_config, ptr noundef nonnull @.str.104) #14
  br label %39

39:                                               ; preds = %30, %37, %.lr.ph.split
  %indvars.iv.next = add nuw nsw i64 %indvars.iv, 1
  %exitcond.not = icmp eq i64 %indvars.iv.next, %wide.trip.count
  br i1 %exitcond.not, label %._crit_edge, label %.lr.ph.split, !llvm.loop !46

._crit_edge:                                      ; preds = %39, %27, %17
  %40 = tail call i32 @close(i32 noundef %13) #14
  br label %41

41:                                               ; preds = %._crit_edge, %15
  call void @llvm.lifetime.end.p0(i64 16, ptr nonnull %4) #14
  call void @llvm.lifetime.end.p0(i64 144, ptr nonnull %3) #14
  br label %42

42:                                               ; preds = %41, %5, %2
  ret void
}